target datalayout = "e-m:e-p270:32:32-p271:32:32-p272:64:64-i64:64-i128:128-f80:128-n8:16:32:64-S128"
target triple = "x86_64-pc-linux-gnu"

%"class.metaspace::RootChunkArea" = type { ptr, ptr }
%"class.metaspace::ChunkHeaderPool" = type { %"class.metaspace::AbstractCounter", ptr, ptr, %"class.metaspace::AbstractCounter", [4 x i8], %"class.metaspace::MetachunkList" }
%"class.metaspace::AbstractCounter" = type { i32 }
%"class.metaspace::MetachunkList" = type <{ ptr, %"class.metaspace::AbstractCounter", [4 x i8] }>
%"struct.metaspace::ChunkHeaderPool::Slab" = type { ptr, i32, [128 x %"class.metaspace::Metachunk"] }
%"class.metaspace::Metachunk" = type { ptr, i64, i64, i8, i8, ptr, ptr, ptr, ptr, ptr }

@_ZN9metaspace15ChunkHeaderPool16_chunkHeaderPoolE = external global ptr, align 8

; Function Attrs: mustprogress nounwind uwtable
define linkonce_odr hidden void @_ZN9metaspace15AbstractCounterIjE12decrement_byEj(ptr noundef nonnull align 4 dereferenceable(4) %0, i32 noundef %1) #1 comdat align 2 {
  %3 = alloca ptr, align 8
  %4 = alloca i32, align 4
  store ptr %0, ptr %3, align 8
  store i32 %1, ptr %4, align 4
  %5 = load ptr, ptr %3, align 8
  %6 = load i32, ptr %4, align 4
  %7 = getelementptr inbounds %"class.metaspace::AbstractCounter", ptr %5, i32 0, i32 0
  %8 = load i32, ptr %7, align 4
  %9 = sub i32 %8, %6
  store i32 %9, ptr %7, align 4
  ret void
}

; Function Attrs: mustprogress nounwind uwtable
define linkonce_odr hidden void @_ZN9metaspace15AbstractCounterIjE12increment_byEj(ptr noundef nonnull align 4 dereferenceable(4) %0, i32 noundef %1) #1 comdat align 2 {
  %3 = alloca ptr, align 8
  %4 = alloca i32, align 4
  store ptr %0, ptr %3, align 8
  store i32 %1, ptr %4, align 4
  %5 = load ptr, ptr %3, align 8
  %6 = load i32, ptr %4, align 4
  %7 = getelementptr inbounds %"class.metaspace::AbstractCounter", ptr %5, i32 0, i32 0
  %8 = load i32, ptr %7, align 4
  %9 = add i32 %8, %6
  store i32 %9, ptr %7, align 4
  ret void
}

; Function Attrs: mustprogress nounwind uwtable
define linkonce_odr hidden void @_ZN9metaspace9Metachunk8set_nextEPS0_(ptr noundef nonnull align 8 dereferenceable(72) %0, ptr noundef %1) #1 comdat align 2 {
  %3 = alloca ptr, align 8
  %4 = alloca ptr, align 8
  store ptr %0, ptr %3, align 8
  store ptr %1, ptr %4, align 8
  %5 = load ptr, ptr %3, align 8
  %6 = load ptr, ptr %4, align 8
  %7 = getelementptr inbounds %"class.metaspace::Metachunk", ptr %5, i32 0, i32 7
  store ptr %6, ptr %7, align 8
  ret void
}

; Function Attrs: mustprogress nounwind uwtable
define linkonce_odr hidden void @_ZN9metaspace15AbstractCounterIjE9decrementEv(ptr noundef nonnull align 4 dereferenceable(4) %0) #1 comdat align 2 {
  %2 = alloca ptr, align 8
  store ptr %0, ptr %2, align 8
  %3 = load ptr, ptr %2, align 8
  call void @_ZN9metaspace15AbstractCounterIjE12decrement_byEj(ptr noundef nonnull align 4 dereferenceable(4) %3, i32 noundef 1)
  ret void
}

; Function Attrs: mustprogress nounwind uwtable
define linkonce_odr hidden void @_ZN9metaspace9Metachunk8set_prevEPS0_(ptr noundef nonnull align 8 dereferenceable(72) %0, ptr noundef %1) #1 comdat align 2 {
  %3 = alloca ptr, align 8
  %4 = alloca ptr, align 8
  store ptr %0, ptr %3, align 8
  store ptr %1, ptr %4, align 8
  %5 = load ptr, ptr %3, align 8
  %6 = load ptr, ptr %4, align 8
  %7 = getelementptr inbounds %"class.metaspace::Metachunk", ptr %5, i32 0, i32 6
  store ptr %6, ptr %7, align 8
  ret void
}

; Function Attrs: mustprogress nounwind uwtable
define linkonce_odr hidden noundef ptr @_ZNK9metaspace9Metachunk4nextEv(ptr noundef nonnull align 8 dereferenceable(72) %0) #1 comdat align 2 {
  %2 = alloca ptr, align 8
  store ptr %0, ptr %2, align 8
  %3 = load ptr, ptr %2, align 8
  %4 = getelementptr inbounds %"class.metaspace::Metachunk", ptr %3, i32 0, i32 7
  %5 = load ptr, ptr %4, align 8
  ret ptr %5
}

; Function Attrs: mustprogress nounwind uwtable
define linkonce_odr hidden void @_ZN9metaspace9Metachunk5clearEv(ptr noundef nonnull align 8 dereferenceable(72) %0) #1 comdat align 2 {
  %2 = alloca ptr, align 8
  store ptr %0, ptr %2, align 8
  %3 = load ptr, ptr %2, align 8
  %4 = getelementptr inbounds %"class.metaspace::Metachunk", ptr %3, i32 0, i32 0
  store ptr null, ptr %4, align 8
  %5 = getelementptr inbounds %"class.metaspace::Metachunk", ptr %3, i32 0, i32 1
  store i64 0, ptr %5, align 8
  %6 = getelementptr inbounds %"class.metaspace::Metachunk", ptr %3, i32 0, i32 2
  store i64 0, ptr %6, align 8
  %7 = getelementptr inbounds %"class.metaspace::Metachunk", ptr %3, i32 0, i32 3
  store i8 0, ptr %7, align 8
  %8 = getelementptr inbounds %"class.metaspace::Metachunk", ptr %3, i32 0, i32 4
  store i8 0, ptr %8, align 1
  %9 = getelementptr inbounds %"class.metaspace::Metachunk", ptr %3, i32 0, i32 5
  store ptr null, ptr %9, align 8
  %10 = getelementptr inbounds %"class.metaspace::Metachunk", ptr %3, i32 0, i32 6
  store ptr null, ptr %10, align 8
  %11 = getelementptr inbounds %"class.metaspace::Metachunk", ptr %3, i32 0, i32 7
  store ptr null, ptr %11, align 8
  %12 = getelementptr inbounds %"class.metaspace::Metachunk", ptr %3, i32 0, i32 8
  store ptr null, ptr %12, align 8
  %13 = getelementptr inbounds %"class.metaspace::Metachunk", ptr %3, i32 0, i32 9
  store ptr null, ptr %13, align 8
  ret void
}

; Function Attrs: mustprogress nounwind uwtable
define linkonce_odr hidden void @_ZN9metaspace15AbstractCounterIjE9incrementEv(ptr noundef nonnull align 4 dereferenceable(4) %0) #1 comdat align 2 {
  %2 = alloca ptr, align 8
  store ptr %0, ptr %2, align 8
  %3 = load ptr, ptr %2, align 8
  call void @_ZN9metaspace15AbstractCounterIjE12increment_byEj(ptr noundef nonnull align 4 dereferenceable(4) %3, i32 noundef 1)
  ret void
}

; Function Attrs: mustprogress nounwind uwtable
define linkonce_odr hidden noundef ptr @_ZN9metaspace13MetachunkList12remove_firstEv(ptr noundef nonnull align 8 dereferenceable(12) %0) #1 comdat align 2 {
  %2 = alloca ptr, align 8
  %3 = alloca ptr, align 8
  %4 = alloca ptr, align 8
  store ptr %0, ptr %3, align 8
  %5 = load ptr, ptr %3, align 8
  %6 = getelementptr inbounds %"class.metaspace::MetachunkList", ptr %5, i32 0, i32 0
  %7 = load ptr, ptr %6, align 8
  %8 = icmp ne ptr %7, null
  br i1 %8, label %9, label %27

9:                                                ; preds = %1
  %10 = getelementptr inbounds %"class.metaspace::MetachunkList", ptr %5, i32 0, i32 0
  %11 = load ptr, ptr %10, align 8
  store ptr %11, ptr %4, align 8
  %12 = getelementptr inbounds %"class.metaspace::MetachunkList", ptr %5, i32 0, i32 0
  %13 = load ptr, ptr %12, align 8
  %14 = call noundef ptr @_ZNK9metaspace9Metachunk4nextEv(ptr noundef nonnull align 8 dereferenceable(72) %13)
  %15 = getelementptr inbounds %"class.metaspace::MetachunkList", ptr %5, i32 0, i32 0
  store ptr %14, ptr %15, align 8
  %16 = getelementptr inbounds %"class.metaspace::MetachunkList", ptr %5, i32 0, i32 0
  %17 = load ptr, ptr %16, align 8
  %18 = icmp ne ptr %17, null
  br i1 %18, label %19, label %22

19:                                               ; preds = %9
  %20 = getelementptr inbounds %"class.metaspace::MetachunkList", ptr %5, i32 0, i32 0
  %21 = load ptr, ptr %20, align 8
  call void @_ZN9metaspace9Metachunk8set_prevEPS0_(ptr noundef nonnull align 8 dereferenceable(72) %21, ptr noundef null)
  br label %22

22:                                               ; preds = %19, %9
  %23 = getelementptr inbounds %"class.metaspace::MetachunkList", ptr %5, i32 0, i32 1
  call void @_ZN9metaspace15AbstractCounterIjE9decrementEv(ptr noundef nonnull align 4 dereferenceable(4) %23)
  %24 = load ptr, ptr %4, align 8
  call void @_ZN9metaspace9Metachunk8set_prevEPS0_(ptr noundef nonnull align 8 dereferenceable(72) %24, ptr noundef null)
  %25 = load ptr, ptr %4, align 8
  call void @_ZN9metaspace9Metachunk8set_nextEPS0_(ptr noundef nonnull align 8 dereferenceable(72) %25, ptr noundef null)
  %26 = load ptr, ptr %4, align 8
  store ptr %26, ptr %2, align 8
  br label %28

27:                                               ; preds = %1
  store ptr null, ptr %2, align 8
  br label %28

28:                                               ; preds = %27, %22
  %29 = load ptr, ptr %2, align 8
  ret ptr %29
}

; Function Attrs: mustprogress nounwind uwtable
define linkonce_odr hidden void @_ZN9metaspace9Metachunk10initializeEPNS_16VirtualSpaceNodeEPP12MetaWordImpla(ptr noundef nonnull align 8 dereferenceable(72) %0, ptr noundef %1, ptr noundef %2, i8 noundef signext %3) #1 comdat align 2 {
  %5 = alloca ptr, align 8
  %6 = alloca ptr, align 8
  %7 = alloca ptr, align 8
  %8 = alloca i8, align 1
  store ptr %0, ptr %5, align 8
  store ptr %1, ptr %6, align 8
  store ptr %2, ptr %7, align 8
  store i8 %3, ptr %8, align 1
  %9 = load ptr, ptr %5, align 8
  call void @_ZN9metaspace9Metachunk5clearEv(ptr noundef nonnull align 8 dereferenceable(72) %9)
  %10 = load ptr, ptr %6, align 8
  %11 = getelementptr inbounds %"class.metaspace::Metachunk", ptr %9, i32 0, i32 5
  store ptr %10, ptr %11, align 8
  %12 = load ptr, ptr %7, align 8
  %13 = getelementptr inbounds %"class.metaspace::Metachunk", ptr %9, i32 0, i32 0
  store ptr %12, ptr %13, align 8
  %14 = load i8, ptr %8, align 1
  %15 = getelementptr inbounds %"class.metaspace::Metachunk", ptr %9, i32 0, i32 3
  store i8 %14, ptr %15, align 8
  ret void
}

; Function Attrs: mustprogress nounwind uwtable
define linkonce_odr hidden noundef ptr @_ZN9metaspace15ChunkHeaderPool21allocate_chunk_headerEv(ptr noundef nonnull align 8 dereferenceable(48) %0) #1 comdat align 2 {
  %2 = alloca ptr, align 8
  %3 = alloca ptr, align 8
  store ptr %0, ptr %2, align 8
  %4 = load ptr, ptr %2, align 8
  store ptr null, ptr %3, align 8
  %5 = getelementptr inbounds %"class.metaspace::ChunkHeaderPool", ptr %4, i32 0, i32 5
  %6 = call noundef ptr @_ZN9metaspace13MetachunkList12remove_firstEv(ptr noundef nonnull align 8 dereferenceable(12) %5)
  store ptr %6, ptr %3, align 8
  %7 = load ptr, ptr %3, align 8
  %8 = icmp eq ptr %7, null
  br i1 %8, label %9, label %36

9:                                                ; preds = %1
  %10 = getelementptr inbounds %"class.metaspace::ChunkHeaderPool", ptr %4, i32 0, i32 2
  %11 = load ptr, ptr %10, align 8
  %12 = icmp eq ptr %11, null
  br i1 %12, label %19, label %13

13:                                               ; preds = %9
  %14 = getelementptr inbounds %"class.metaspace::ChunkHeaderPool", ptr %4, i32 0, i32 2
  %15 = load ptr, ptr %14, align 8
  %16 = getelementptr inbounds %"struct.metaspace::ChunkHeaderPool::Slab", ptr %15, i32 0, i32 1
  %17 = load i32, ptr %16, align 8
  %18 = icmp eq i32 %17, 128
  br i1 %18, label %19, label %20

19:                                               ; preds = %13, %9
  call void @_ZN9metaspace15ChunkHeaderPool17allocate_new_slabEv(ptr noundef nonnull align 8 dereferenceable(48) %4)
  br label %20

20:                                               ; preds = %19, %13
  %21 = getelementptr inbounds %"class.metaspace::ChunkHeaderPool", ptr %4, i32 0, i32 2
  %22 = load ptr, ptr %21, align 8
  %23 = getelementptr inbounds %"struct.metaspace::ChunkHeaderPool::Slab", ptr %22, i32 0, i32 2
  %24 = getelementptr inbounds [128 x %"class.metaspace::Metachunk"], ptr %23, i64 0, i64 0
  %25 = getelementptr inbounds %"class.metaspace::ChunkHeaderPool", ptr %4, i32 0, i32 2
  %26 = load ptr, ptr %25, align 8
  %27 = getelementptr inbounds %"struct.metaspace::ChunkHeaderPool::Slab", ptr %26, i32 0, i32 1
  %28 = load i32, ptr %27, align 8
  %29 = sext i32 %28 to i64
  %30 = getelementptr inbounds %"class.metaspace::Metachunk", ptr %24, i64 %29
  store ptr %30, ptr %3, align 8
  %31 = getelementptr inbounds %"class.metaspace::ChunkHeaderPool", ptr %4, i32 0, i32 2
  %32 = load ptr, ptr %31, align 8
  %33 = getelementptr inbounds %"struct.metaspace::ChunkHeaderPool::Slab", ptr %32, i32 0, i32 1
  %34 = load i32, ptr %33, align 8
  %35 = add nsw i32 %34, 1
  store i32 %35, ptr %33, align 8
  br label %36

36:                                               ; preds = %20, %1
  %37 = getelementptr inbounds %"class.metaspace::ChunkHeaderPool", ptr %4, i32 0, i32 3
  call void @_ZN9metaspace15AbstractCounterIjE9incrementEv(ptr noundef nonnull align 4 dereferenceable(4) %37)
  %38 = load ptr, ptr %3, align 8
  ret ptr %38
}

; Function Attrs: mustprogress nounwind uwtable
define linkonce_odr hidden noundef ptr @_ZN9metaspace15ChunkHeaderPool4poolEv() #1 comdat align 2 {
  %1 = load ptr, ptr @_ZN9metaspace15ChunkHeaderPool16_chunkHeaderPoolE, align 8
  ret ptr %1
}

; Function Attrs: mustprogress nounwind uwtable
define hidden noundef ptr @_ZN9metaspace13RootChunkArea23alloc_root_chunk_headerEPNS_16VirtualSpaceNodeE(ptr noundef nonnull align 8 dereferenceable(16) %0, ptr noundef %1) #1 align 2 {
  %3 = alloca ptr, align 8
  %4 = alloca ptr, align 8
  %5 = alloca ptr, align 8
  store ptr %0, ptr %3, align 8
  store ptr %1, ptr %4, align 8
  %6 = load ptr, ptr %3, align 8
  %7 = call noundef ptr @_ZN9metaspace15ChunkHeaderPool4poolEv()
  %8 = call noundef ptr @_ZN9metaspace15ChunkHeaderPool21allocate_chunk_headerEv(ptr noundef nonnull align 8 dereferenceable(48) %7)
  store ptr %8, ptr %5, align 8
  %9 = load ptr, ptr %5, align 8
  %10 = load ptr, ptr %4, align 8
  %11 = getelementptr inbounds %"class.metaspace::RootChunkArea", ptr %6, i32 0, i32 0
  %12 = load ptr, ptr %11, align 8
  call void @_ZN9metaspace9Metachunk10initializeEPNS_16VirtualSpaceNodeEPP12MetaWordImpla(ptr noundef nonnull align 8 dereferenceable(72) %9, ptr noundef %10, ptr noundef %12, i8 noundef signext 0)
  %13 = load ptr, ptr %5, align 8
  %14 = getelementptr inbounds %"class.metaspace::RootChunkArea", ptr %6, i32 0, i32 1
  store ptr %13, ptr %14, align 8
  %15 = load ptr, ptr %5, align 8
  ret ptr %15
}