; Function Attrs: mustprogress nounwind uwtable
define hidden noundef ptr @_ZN9metaspace13RootChunkArea23alloc_root_chunk_headerEPNS_16VirtualSpaceNodeE(ptr nocapture noundef nonnull align 8 dereferenceable(16) %0, ptr noundef %1) local_unnamed_addr #2 align 2 {
  %3 = load ptr, ptr @_ZN9metaspace15ChunkHeaderPool16_chunkHeaderPoolE, align 8
  %4 = getelementptr inbounds i8, ptr %3, i64 32
  %5 = load ptr, ptr %4, align 8
  %.not.i.i = icmp eq ptr %5, null
  br i1 %.not.i.i, label %15, label %6

6:                                                ; preds = %2
  %7 = getelementptr inbounds i8, ptr %5, i64 48
  %8 = load ptr, ptr %7, align 8
  store ptr %8, ptr %4, align 8
  %.not7.i.i = icmp eq ptr %8, null
  br i1 %.not7.i.i, label %_ZN9metaspace13MetachunkList12remove_firstEv.exit.i, label %9

9:                                                ; preds = %6
  %10 = getelementptr inbounds i8, ptr %8, i64 40
  store ptr null, ptr %10, align 8
  br label %_ZN9metaspace13MetachunkList12remove_firstEv.exit.i

_ZN9metaspace13MetachunkList12remove_firstEv.exit.i: ; preds = %9, %6
  %11 = getelementptr inbounds i8, ptr %3, i64 40
  %12 = load i32, ptr %11, align 4
  %13 = add i32 %12, -1
  store i32 %13, ptr %11, align 4
  %14 = getelementptr inbounds i8, ptr %5, i64 40
  tail call void @llvm.memset.p0.i64(ptr noundef nonnull align 8 dereferenceable(16) %14, i8 0, i64 16, i1 false)
  br label %_ZN9metaspace15ChunkHeaderPool21allocate_chunk_headerEv.exit

15:                                               ; preds = %2
  %16 = getelementptr inbounds i8, ptr %3, i64 16
  %17 = load ptr, ptr %16, align 8
  %18 = icmp eq ptr %17, null
  br i1 %18, label %23, label %19

19:                                               ; preds = %15
  %20 = getelementptr inbounds i8, ptr %17, i64 8
  %21 = load i32, ptr %20, align 8
  %22 = icmp eq i32 %21, 128
  br i1 %22, label %23, label %24

23:                                               ; preds = %19, %15
  tail call void @_ZN9metaspace15ChunkHeaderPool17allocate_new_slabEv(ptr noundef nonnull align 8 dereferenceable(48) %3) #8
  %.pre.i = load ptr, ptr %16, align 8
  %.phi.trans.insert.i = getelementptr inbounds i8, ptr %.pre.i, i64 8
  %.pre5.i = load i32, ptr %.phi.trans.insert.i, align 8
  br label %24

24:                                               ; preds = %23, %19
  %25 = phi i32 [ %.pre5.i, %23 ], [ %21, %19 ]
  %26 = phi ptr [ %.pre.i, %23 ], [ %17, %19 ]
  %27 = getelementptr inbounds i8, ptr %26, i64 16
  %28 = getelementptr inbounds i8, ptr %26, i64 8
  %29 = sext i32 %25 to i64
  %30 = getelementptr inbounds %"class.metaspace::Metachunk", ptr %27, i64 %29
  %31 = add nsw i32 %25, 1
  store i32 %31, ptr %28, align 8
  br label %_ZN9metaspace15ChunkHeaderPool21allocate_chunk_headerEv.exit

_ZN9metaspace15ChunkHeaderPool21allocate_chunk_headerEv.exit: ; preds = %_ZN9metaspace13MetachunkList12remove_firstEv.exit.i, %24
  %.0.i = phi ptr [ %30, %24 ], [ %5, %_ZN9metaspace13MetachunkList12remove_firstEv.exit.i ]
  %32 = getelementptr inbounds i8, ptr %3, i64 24
  %33 = load i32, ptr %32, align 4
  %34 = add i32 %33, 1
  store i32 %34, ptr %32, align 4
  %35 = load ptr, ptr %0, align 8
  %36 = getelementptr inbounds i8, ptr %.0.i, i64 32
  %37 = getelementptr inbounds i8, ptr %.0.i, i64 8
  tail call void @llvm.memset.p0.i64(ptr noundef nonnull align 8 dereferenceable(26) %37, i8 0, i64 18, i1 false)
  %38 = getelementptr inbounds i8, ptr %.0.i, i64 40
  tail call void @llvm.memset.p0.i64(ptr noundef nonnull align 8 dereferenceable(40) %38, i8 0, i64 32, i1 false)
  store ptr %1, ptr %36, align 8
  store ptr %35, ptr %.0.i, align 8
  %39 = getelementptr inbounds i8, ptr %0, i64 8
  store ptr %.0.i, ptr %39, align 8
  ret ptr %.0.i
}